; Function Attrs: null_pointer_is_valid sspstrong uwtable
define ptr @wscbor_require_bstr(ptr noundef readnone captures(none) %0, ptr noundef readonly captures(none) %1) local_unnamed_addr #0 {
  %3 = getelementptr inbounds nuw i8, ptr %1, i64 40
  %4 = load i32, ptr %3, align 8
  %5 = icmp eq i32 %4, 2
  br i1 %5, label %11, label %wscbor_require_major_type.exit

wscbor_require_major_type.exit:                   ; preds = %2
  %6 = getelementptr inbounds nuw i8, ptr %1, i64 24
  %7 = load ptr, ptr %6, align 8
  %8 = load ptr, ptr %1, align 8
  %9 = load ptr, ptr %8, align 8
  %10 = tail call ptr (ptr, ptr, ptr, ...) @wscbor_error_new(ptr noundef %9, ptr noundef nonnull @ei_cbor_wrong_type, ptr noundef nonnull @.str.10, i32 noundef %4, i32 noundef 2)
  tail call void @wmem_list_append(ptr noundef %7, ptr noundef %10)
  br label %15

11:                                               ; preds = %2
  %12 = load ptr, ptr %1, align 8
  %13 = getelementptr inbounds nuw i8, ptr %12, i64 16
  %14 = load ptr, ptr %13, align 8
  br label %15

15:                                               ; preds = %wscbor_require_major_type.exit, %11
  %.0 = phi ptr [ %14, %11 ], [ null, %wscbor_require_major_type.exit ]
  ret ptr %.0
}